target datalayout = "e-m:e-p270:32:32-p271:32:32-p272:64:64-i64:64-i128:128-f80:128-n8:16:32:64-S128"
target triple = "x86_64-pc-linux-gnu"

%struct.LOCKTAG = type { i32, i32, i32, i16, i8, i8 }
%struct.LOCALLOCKTAG = type { %struct.LOCKTAG, i32 }
%struct.LOCALLOCK = type { %struct.LOCALLOCKTAG, i32, ptr, ptr, i64, i32, i32, ptr, i8, i8 }
%struct.HASH_SEQ_STATUS = type { ptr, i32, ptr, i8, i32 }

@LockMethodLocalHash = internal global ptr null, align 8
@.str.4 = private unnamed_addr constant [29 x i8] c"unrecognized lock method: %d\00", align 1
@.str.5 = private unnamed_addr constant [7 x i8] c"lock.c\00", align 1
@__func__.LockReleaseSession = private unnamed_addr constant [19 x i8] c"LockReleaseSession\00", align 1

; Function Attrs: nounwind uwtable
define dso_local void @LockReleaseSession(i16 noundef zeroext %0) #0 {
  %2 = alloca i16, align 2
  %3 = alloca %struct.HASH_SEQ_STATUS, align 8
  %4 = alloca ptr, align 8
  store i16 %0, ptr %2, align 2
  call void @llvm.lifetime.start.p0(i64 32, ptr %3) #9
  call void @llvm.lifetime.start.p0(i64 8, ptr %4) #9
  %5 = load i16, ptr %2, align 2
  %6 = zext i16 %5 to i32
  %7 = icmp sle i32 %6, 0
  br i1 %7, label %12, label %8

8:                                                ; preds = %1
  %9 = load i16, ptr %2, align 2
  %10 = zext i16 %9 to i64
  %11 = icmp uge i64 %10, 3
  br i1 %11, label %12, label %25

12:                                               ; preds = %8, %1
  br label %13

13:                                               ; preds = %12
  br i1 true, label %14, label %16

14:                                               ; preds = %13
  %15 = call zeroext i1 @errstart_cold(i32 noundef 21, ptr noundef null) #10
  br i1 %15, label %18, label %22

16:                                               ; preds = %13
  %17 = call zeroext i1 @errstart(i32 noundef 21, ptr noundef null)
  br i1 %17, label %18, label %22

18:                                               ; preds = %16, %14
  %19 = load i16, ptr %2, align 2
  %20 = zext i16 %19 to i32
  %21 = call i32 (ptr, ...) @errmsg_internal(ptr noundef @.str.4, i32 noundef %20)
  call void @errfinish(ptr noundef @.str.5, i32 noundef 2496, ptr noundef @__func__.LockReleaseSession)
  br label %22

22:                                               ; preds = %18, %16, %14
  unreachable

23:                                               ; No predecessors!
  br label %24

24:                                               ; preds = %23
  br label %25

25:                                               ; preds = %24, %8
  %26 = load ptr, ptr @LockMethodLocalHash, align 8
  call void @hash_seq_init(ptr noundef %3, ptr noundef %26)
  br label %27

27:                                               ; preds = %41, %40, %25
  %28 = call ptr @hash_seq_search(ptr noundef %3)
  store ptr %28, ptr %4, align 8
  %29 = icmp ne ptr %28, null
  br i1 %29, label %30, label %43

30:                                               ; preds = %27
  %31 = load ptr, ptr %4, align 8
  %32 = getelementptr inbounds nuw %struct.LOCALLOCK, ptr %31, i32 0, i32 0
  %33 = getelementptr inbounds nuw %struct.LOCALLOCKTAG, ptr %32, i32 0, i32 0
  %34 = getelementptr inbounds nuw %struct.LOCKTAG, ptr %33, i32 0, i32 5
  %35 = load i8, ptr %34, align 1
  %36 = zext i8 %35 to i32
  %37 = load i16, ptr %2, align 2
  %38 = zext i16 %37 to i32
  %39 = icmp ne i32 %36, %38
  br i1 %39, label %40, label %41

40:                                               ; preds = %30
  br label %27, !llvm.loop !36

41:                                               ; preds = %30
  %42 = load ptr, ptr %4, align 8
  call void @ReleaseLockIfHeld(ptr noundef %42, i1 noundef zeroext true)
  br label %27, !llvm.loop !36

43:                                               ; preds = %27
  call void @llvm.lifetime.end.p0(i64 8, ptr %4) #9
  call void @llvm.lifetime.end.p0(i64 32, ptr %3) #9
  ret void
}