; Function Attrs: nounwind uwtable
define dso_local void @LockReleaseSession(i16 noundef zeroext %0) local_unnamed_addr #0 {
  %2 = alloca %struct.HASH_SEQ_STATUS, align 8
  call void @llvm.lifetime.start.p0(i64 32, ptr nonnull %2) #17
  %3 = add i16 %0, -3
  %or.cond = icmp ult i16 %3, -2
  br i1 %or.cond, label %4, label %8

4:                                                ; preds = %1
  %5 = zext i16 %0 to i32
  %6 = tail call zeroext i1 @errstart_cold(i32 noundef 21, ptr noundef null) #18
  tail call void @llvm.assume(i1 %6)
  %7 = tail call i32 (ptr, ...) @errmsg_internal(ptr noundef nonnull @.str.4, i32 noundef %5) #17
  tail call void @errfinish(ptr noundef nonnull @.str.5, i32 noundef 2496, ptr noundef nonnull @__func__.LockReleaseSession) #17
  unreachable

8:                                                ; preds = %1
  %9 = load ptr, ptr @LockMethodLocalHash, align 8
  call void @hash_seq_init(ptr noundef nonnull %2, ptr noundef %9) #17
  %10 = call ptr @hash_seq_search(ptr noundef nonnull %2) #17
  %.not9 = icmp eq ptr %10, null
  br i1 %.not9, label %._crit_edge, label %.lr.ph

.lr.ph:                                           ; preds = %8, %.backedge
  %11 = phi ptr [ %16, %.backedge ], [ %10, %8 ]
  %12 = getelementptr inbounds nuw i8, ptr %11, i64 15
  %13 = load i8, ptr %12, align 1
  %14 = zext i8 %13 to i16
  %.not8 = icmp eq i16 %0, %14
  br i1 %.not8, label %15, label %.backedge

15:                                               ; preds = %.lr.ph
  call fastcc void @ReleaseLockIfHeld(ptr noundef nonnull %11, i1 noundef zeroext true)
  br label %.backedge

.backedge:                                        ; preds = %15, %.lr.ph
  %16 = call ptr @hash_seq_search(ptr noundef nonnull %2) #17
  %.not = icmp eq ptr %16, null
  br i1 %.not, label %._crit_edge, label %.lr.ph, !llvm.loop !30

._crit_edge:                                      ; preds = %.backedge, %8
  call void @llvm.lifetime.end.p0(i64 32, ptr nonnull %2) #17
  ret void
}